target datalayout = "e-m:e-p270:32:32-p271:32:32-p272:64:64-i64:64-i128:128-f80:128-n8:16:32:64-S128"
target triple = "x86_64-pc-linux-gnu"

; Function Attrs: nounwind uwtable
define void @updataInfo(i32 noundef %0, i32 noundef %1, i32 noundef %2, ptr noundef %3, ptr noundef %4) #0 {
  %6 = alloca i32, align 4
  %7 = alloca i32, align 4
  %8 = alloca i32, align 4
  %9 = alloca ptr, align 8
  %10 = alloca ptr, align 8
  store i32 %0, ptr %6, align 4, !tbaa !8
  store i32 %1, ptr %7, align 4, !tbaa !8
  store i32 %2, ptr %8, align 4, !tbaa !8
  store ptr %3, ptr %9, align 8, !tbaa !10
  store ptr %4, ptr %10, align 8, !tbaa !12
  %11 = load ptr, ptr %9, align 8, !tbaa !10
  %12 = load ptr, ptr %10, align 8, !tbaa !12
  %13 = load i32, ptr %12, align 4, !tbaa !8
  %14 = load i32, ptr %8, align 4, !tbaa !8
  %15 = load i32, ptr %6, align 4, !tbaa !8
  %16 = load i32, ptr %7, align 4, !tbaa !8
  %17 = sub nsw i32 %15, %16
  %18 = call i32 @llvm.abs.i32(i32 %17, i1 true)
  %19 = sub nsw i32 %18, 1
  %20 = shl i32 %19, 2
  %21 = load i32, ptr %6, align 4, !tbaa !8
  %22 = add nsw i32 %20, %21
  %23 = call i32 @adjustInfoAfterSwap(ptr noundef %11, i32 noundef %13, i32 noundef %14, i32 noundef %22)
  %24 = load ptr, ptr %10, align 8, !tbaa !12
  store i32 %23, ptr %24, align 4, !tbaa !8
  ret void
}

; Function Attrs: nounwind uwtable
define i32 @firstShiftWithOneBit(i64 noundef %0, i32 noundef %1) #0 {
  %3 = alloca i32, align 4
  %4 = alloca i64, align 8
  %5 = alloca i32, align 4
  %6 = alloca i32, align 4
  %7 = alloca i32, align 4
  store i64 %0, ptr %4, align 8, !tbaa !18
  store i32 %1, ptr %5, align 4, !tbaa !8
  call void @llvm.lifetime.start.p0(i64 4, ptr %6) #7
  store i32 0, ptr %6, align 4, !tbaa !8
  %8 = load i32, ptr %5, align 4, !tbaa !8
  %9 = icmp eq i32 %8, 16
  br i1 %9, label %10, label %11

10:                                               ; preds = %2
  store i32 0, ptr %3, align 4
  store i32 1, ptr %7, align 4
  br label %68

11:                                               ; preds = %2
  %12 = load i64, ptr %4, align 8, !tbaa !18
  %13 = icmp uge i64 %12, 4294967296
  br i1 %13, label %14, label %19

14:                                               ; preds = %11
  %15 = load i32, ptr %6, align 4, !tbaa !8
  %16 = add nsw i32 %15, 32
  store i32 %16, ptr %6, align 4, !tbaa !8
  %17 = load i64, ptr %4, align 8, !tbaa !18
  %18 = lshr i64 %17, 32
  store i64 %18, ptr %4, align 8, !tbaa !18
  br label %19

19:                                               ; preds = %14, %11
  %20 = load i32, ptr %5, align 4, !tbaa !8
  %21 = icmp eq i32 %20, 8
  br i1 %21, label %22, label %26

22:                                               ; preds = %19
  %23 = load i32, ptr %6, align 4, !tbaa !8
  %24 = sub nsw i32 64, %23
  %25 = sdiv i32 %24, 32
  store i32 %25, ptr %3, align 4
  store i32 1, ptr %7, align 4
  br label %68

26:                                               ; preds = %19
  %27 = load i64, ptr %4, align 8, !tbaa !18
  %28 = icmp uge i64 %27, 65536
  br i1 %28, label %29, label %34

29:                                               ; preds = %26
  %30 = load i32, ptr %6, align 4, !tbaa !8
  %31 = add nsw i32 %30, 16
  store i32 %31, ptr %6, align 4, !tbaa !8
  %32 = load i64, ptr %4, align 8, !tbaa !18
  %33 = lshr i64 %32, 16
  store i64 %33, ptr %4, align 8, !tbaa !18
  br label %34

34:                                               ; preds = %29, %26
  %35 = load i32, ptr %5, align 4, !tbaa !8
  %36 = icmp eq i32 %35, 4
  br i1 %36, label %37, label %41

37:                                               ; preds = %34
  %38 = load i32, ptr %6, align 4, !tbaa !8
  %39 = sub nsw i32 64, %38
  %40 = sdiv i32 %39, 16
  store i32 %40, ptr %3, align 4
  store i32 1, ptr %7, align 4
  br label %68

41:                                               ; preds = %34
  %42 = load i64, ptr %4, align 8, !tbaa !18
  %43 = icmp uge i64 %42, 256
  br i1 %43, label %44, label %49

44:                                               ; preds = %41
  %45 = load i32, ptr %6, align 4, !tbaa !8
  %46 = add nsw i32 %45, 8
  store i32 %46, ptr %6, align 4, !tbaa !8
  %47 = load i64, ptr %4, align 8, !tbaa !18
  %48 = lshr i64 %47, 8
  store i64 %48, ptr %4, align 8, !tbaa !18
  br label %49

49:                                               ; preds = %44, %41
  %50 = load i32, ptr %5, align 4, !tbaa !8
  %51 = icmp eq i32 %50, 2
  br i1 %51, label %52, label %56

52:                                               ; preds = %49
  %53 = load i32, ptr %6, align 4, !tbaa !8
  %54 = sub nsw i32 64, %53
  %55 = sdiv i32 %54, 8
  store i32 %55, ptr %3, align 4
  store i32 1, ptr %7, align 4
  br label %68

56:                                               ; preds = %49
  %57 = load i64, ptr %4, align 8, !tbaa !18
  %58 = icmp uge i64 %57, 16
  br i1 %58, label %59, label %64

59:                                               ; preds = %56
  %60 = load i32, ptr %6, align 4, !tbaa !8
  %61 = add nsw i32 %60, 4
  store i32 %61, ptr %6, align 4, !tbaa !8
  %62 = load i64, ptr %4, align 8, !tbaa !18
  %63 = lshr i64 %62, 4
  store i64 %63, ptr %4, align 8, !tbaa !18
  br label %64

64:                                               ; preds = %59, %56
  %65 = load i32, ptr %6, align 4, !tbaa !8
  %66 = sub nsw i32 64, %65
  %67 = sdiv i32 %66, 4
  store i32 %67, ptr %3, align 4
  store i32 1, ptr %7, align 4
  br label %68

68:                                               ; preds = %64, %52, %37, %22, %10
  call void @llvm.lifetime.end.p0(i64 4, ptr %6) #7
  %69 = load i32, ptr %3, align 4
  ret i32 %69
}

; Function Attrs: nounwind uwtable
define void @arrangeQuoters_superFast_lessThen5(ptr noundef %0, i32 noundef %1, i32 noundef %2, i32 noundef %3, i32 noundef %4, i32 noundef %5, i32 noundef %6, i32 noundef %7, ptr noundef %8, ptr noundef %9) #0 {
  %11 = alloca ptr, align 8
  %12 = alloca i32, align 4
  %13 = alloca i32, align 4
  %14 = alloca i32, align 4
  %15 = alloca i32, align 4
  %16 = alloca i32, align 4
  %17 = alloca i32, align 4
  %18 = alloca i32, align 4
  %19 = alloca ptr, align 8
  %20 = alloca ptr, align 8
  %21 = alloca i32, align 4
  %22 = alloca i32, align 4
  store ptr %0, ptr %11, align 8, !tbaa !3
  store i32 %1, ptr %12, align 4, !tbaa !8
  store i32 %2, ptr %13, align 4, !tbaa !8
  store i32 %3, ptr %14, align 4, !tbaa !8
  store i32 %4, ptr %15, align 4, !tbaa !8
  store i32 %5, ptr %16, align 4, !tbaa !8
  store i32 %6, ptr %17, align 4, !tbaa !8
  store i32 %7, ptr %18, align 4, !tbaa !8
  store ptr %8, ptr %19, align 8, !tbaa !10
  store ptr %9, ptr %20, align 8, !tbaa !12
  call void @llvm.lifetime.start.p0(i64 4, ptr %21) #7
  call void @llvm.lifetime.start.p0(i64 4, ptr %22) #7
  %23 = load i32, ptr %17, align 4, !tbaa !8
  %24 = shl i32 1, %23
  store i32 %24, ptr %22, align 4, !tbaa !8
  %25 = load i32, ptr %12, align 4, !tbaa !8
  store i32 %25, ptr %21, align 4, !tbaa !8
  br label %26

26:                                               ; preds = %120, %10
  %27 = load i32, ptr %21, align 4, !tbaa !8
  %28 = icmp sge i32 %27, 0
  br i1 %28, label %29, label %123

29:                                               ; preds = %26
  %30 = load ptr, ptr %11, align 8, !tbaa !3
  %31 = load i32, ptr %21, align 4, !tbaa !8
  %32 = sext i32 %31 to i64
  %33 = getelementptr inbounds i64, ptr %30, i64 %32
  %34 = load i64, ptr %33, align 8, !tbaa !18
  %35 = load i32, ptr %17, align 4, !tbaa !8
  %36 = sext i32 %35 to i64
  %37 = getelementptr inbounds [5 x [4 x i64]], ptr @SFmask, i64 0, i64 %36
  %38 = load i32, ptr %13, align 4, !tbaa !8
  %39 = sext i32 %38 to i64
  %40 = getelementptr inbounds [4 x i64], ptr %37, i64 0, i64 %39
  %41 = load i64, ptr %40, align 8, !tbaa !18
  %42 = and i64 %34, %41
  %43 = load i32, ptr %13, align 4, !tbaa !8
  %44 = load i32, ptr %22, align 4, !tbaa !8
  %45 = mul nsw i32 %43, %44
  %46 = zext i32 %45 to i64
  %47 = shl i64 %42, %46
  %48 = load ptr, ptr %11, align 8, !tbaa !3
  %49 = load i32, ptr %21, align 4, !tbaa !8
  %50 = sext i32 %49 to i64
  %51 = getelementptr inbounds i64, ptr %48, i64 %50
  %52 = load i64, ptr %51, align 8, !tbaa !18
  %53 = load i32, ptr %17, align 4, !tbaa !8
  %54 = sext i32 %53 to i64
  %55 = getelementptr inbounds [5 x [4 x i64]], ptr @SFmask, i64 0, i64 %54
  %56 = load i32, ptr %14, align 4, !tbaa !8
  %57 = sext i32 %56 to i64
  %58 = getelementptr inbounds [4 x i64], ptr %55, i64 0, i64 %57
  %59 = load i64, ptr %58, align 8, !tbaa !18
  %60 = and i64 %52, %59
  %61 = load i32, ptr %14, align 4, !tbaa !8
  %62 = load i32, ptr %22, align 4, !tbaa !8
  %63 = mul nsw i32 %61, %62
  %64 = zext i32 %63 to i64
  %65 = shl i64 %60, %64
  %66 = load i32, ptr %22, align 4, !tbaa !8
  %67 = zext i32 %66 to i64
  %68 = lshr i64 %65, %67
  %69 = or i64 %47, %68
  %70 = load ptr, ptr %11, align 8, !tbaa !3
  %71 = load i32, ptr %21, align 4, !tbaa !8
  %72 = sext i32 %71 to i64
  %73 = getelementptr inbounds i64, ptr %70, i64 %72
  %74 = load i64, ptr %73, align 8, !tbaa !18
  %75 = load i32, ptr %17, align 4, !tbaa !8
  %76 = sext i32 %75 to i64
  %77 = getelementptr inbounds [5 x [4 x i64]], ptr @SFmask, i64 0, i64 %76
  %78 = load i32, ptr %15, align 4, !tbaa !8
  %79 = sext i32 %78 to i64
  %80 = getelementptr inbounds [4 x i64], ptr %77, i64 0, i64 %79
  %81 = load i64, ptr %80, align 8, !tbaa !18
  %82 = and i64 %74, %81
  %83 = load i32, ptr %15, align 4, !tbaa !8
  %84 = load i32, ptr %22, align 4, !tbaa !8
  %85 = mul nsw i32 %83, %84
  %86 = zext i32 %85 to i64
  %87 = shl i64 %82, %86
  %88 = load i32, ptr %22, align 4, !tbaa !8
  %89 = mul nsw i32 2, %88
  %90 = zext i32 %89 to i64
  %91 = lshr i64 %87, %90
  %92 = or i64 %69, %91
  %93 = load ptr, ptr %11, align 8, !tbaa !3
  %94 = load i32, ptr %21, align 4, !tbaa !8
  %95 = sext i32 %94 to i64
  %96 = getelementptr inbounds i64, ptr %93, i64 %95
  %97 = load i64, ptr %96, align 8, !tbaa !18
  %98 = load i32, ptr %17, align 4, !tbaa !8
  %99 = sext i32 %98 to i64
  %100 = getelementptr inbounds [5 x [4 x i64]], ptr @SFmask, i64 0, i64 %99
  %101 = load i32, ptr %16, align 4, !tbaa !8
  %102 = sext i32 %101 to i64
  %103 = getelementptr inbounds [4 x i64], ptr %100, i64 0, i64 %102
  %104 = load i64, ptr %103, align 8, !tbaa !18
  %105 = and i64 %97, %104
  %106 = load i32, ptr %16, align 4, !tbaa !8
  %107 = load i32, ptr %22, align 4, !tbaa !8
  %108 = mul nsw i32 %106, %107
  %109 = zext i32 %108 to i64
  %110 = shl i64 %105, %109
  %111 = load i32, ptr %22, align 4, !tbaa !8
  %112 = mul nsw i32 3, %111
  %113 = zext i32 %112 to i64
  %114 = lshr i64 %110, %113
  %115 = or i64 %92, %114
  %116 = load ptr, ptr %11, align 8, !tbaa !3
  %117 = load i32, ptr %21, align 4, !tbaa !8
  %118 = sext i32 %117 to i64
  %119 = getelementptr inbounds i64, ptr %116, i64 %118
  store i64 %115, ptr %119, align 8, !tbaa !18
  br label %120

120:                                              ; preds = %29
  %121 = load i32, ptr %21, align 4, !tbaa !8
  %122 = add nsw i32 %121, -1
  store i32 %122, ptr %21, align 4, !tbaa !8
  br label %26, !llvm.loop !20

123:                                              ; preds = %26
  %124 = load i32, ptr %13, align 4, !tbaa !8
  %125 = load i32, ptr %14, align 4, !tbaa !8
  %126 = load i32, ptr %17, align 4, !tbaa !8
  %127 = load ptr, ptr %19, align 8, !tbaa !10
  %128 = load ptr, ptr %20, align 8, !tbaa !12
  call void @updataInfo(i32 noundef %124, i32 noundef %125, i32 noundef %126, ptr noundef %127, ptr noundef %128)
  call void @llvm.lifetime.end.p0(i64 4, ptr %22) #7
  call void @llvm.lifetime.end.p0(i64 4, ptr %21) #7
  ret void
}

; Function Attrs: nounwind uwtable
define i32 @minTemp1_fast(ptr noundef %0, i32 noundef %1, i32 noundef %2, ptr noundef %3) #0 {
  %5 = alloca i32, align 4
  %6 = alloca ptr, align 8
  %7 = alloca i32, align 4
  %8 = alloca i32, align 4
  %9 = alloca ptr, align 8
  %10 = alloca i32, align 4
  %11 = alloca i32, align 4
  %12 = alloca i64, align 8
  %13 = alloca i32, align 4
  store ptr %0, ptr %6, align 8, !tbaa !3
  store i32 %1, ptr %7, align 4, !tbaa !8
  store i32 %2, ptr %8, align 4, !tbaa !8
  store ptr %3, ptr %9, align 8, !tbaa !12
  call void @llvm.lifetime.start.p0(i64 4, ptr %10) #7
  call void @llvm.lifetime.start.p0(i64 4, ptr %11) #7
  %14 = load i32, ptr %7, align 4, !tbaa !8
  %15 = shl i32 1, %14
  store i32 %15, ptr %11, align 4, !tbaa !8
  call void @llvm.lifetime.start.p0(i64 8, ptr %12) #7
  %16 = load i32, ptr %8, align 4, !tbaa !8
  %17 = sub nsw i32 %16, 1
  store i32 %17, ptr %10, align 4, !tbaa !8
  br label %18

18:                                               ; preds = %96, %4
  %19 = load i32, ptr %10, align 4, !tbaa !8
  %20 = icmp sge i32 %19, 0
  br i1 %20, label %21, label %99

21:                                               ; preds = %18
  %22 = load ptr, ptr %6, align 8, !tbaa !3
  %23 = load i32, ptr %10, align 4, !tbaa !8
  %24 = sext i32 %23 to i64
  %25 = getelementptr inbounds i64, ptr %22, i64 %24
  %26 = load i64, ptr %25, align 8, !tbaa !18
  %27 = load i32, ptr %7, align 4, !tbaa !8
  %28 = sext i32 %27 to i64
  %29 = getelementptr inbounds [5 x [4 x i64]], ptr @SFmask, i64 0, i64 %28
  %30 = getelementptr inbounds [4 x i64], ptr %29, i64 0, i64 1
  %31 = load i64, ptr %30, align 8, !tbaa !18
  %32 = and i64 %26, %31
  %33 = load i32, ptr %11, align 4, !tbaa !8
  %34 = zext i32 %33 to i64
  %35 = shl i64 %32, %34
  %36 = load ptr, ptr %6, align 8, !tbaa !3
  %37 = load i32, ptr %10, align 4, !tbaa !8
  %38 = sext i32 %37 to i64
  %39 = getelementptr inbounds i64, ptr %36, i64 %38
  %40 = load i64, ptr %39, align 8, !tbaa !18
  %41 = load i32, ptr %7, align 4, !tbaa !8
  %42 = sext i32 %41 to i64
  %43 = getelementptr inbounds [5 x [4 x i64]], ptr @SFmask, i64 0, i64 %42
  %44 = getelementptr inbounds [4 x i64], ptr %43, i64 0, i64 2
  %45 = load i64, ptr %44, align 16, !tbaa !18
  %46 = and i64 %40, %45
  %47 = load i32, ptr %11, align 4, !tbaa !8
  %48 = mul nsw i32 2, %47
  %49 = zext i32 %48 to i64
  %50 = shl i64 %46, %49
  %51 = xor i64 %35, %50
  store i64 %51, ptr %12, align 8, !tbaa !18
  %52 = load i64, ptr %12, align 8, !tbaa !18
  %53 = icmp eq i64 %52, 0
  br i1 %53, label %54, label %55

54:                                               ; preds = %21
  br label %96

55:                                               ; preds = %21
  %56 = load i32, ptr %10, align 4, !tbaa !8
  %57 = mul nsw i32 %56, 100
  %58 = add nsw i32 %57, 20
  %59 = load i64, ptr %12, align 8, !tbaa !18
  %60 = load i32, ptr %11, align 4, !tbaa !8
  %61 = call i32 @firstShiftWithOneBit(i64 noundef %59, i32 noundef %60)
  %62 = sub nsw i32 %58, %61
  %63 = load ptr, ptr %9, align 8, !tbaa !12
  store i32 %62, ptr %63, align 4, !tbaa !8
  %64 = load ptr, ptr %6, align 8, !tbaa !3
  %65 = load i32, ptr %10, align 4, !tbaa !8
  %66 = sext i32 %65 to i64
  %67 = getelementptr inbounds i64, ptr %64, i64 %66
  %68 = load i64, ptr %67, align 8, !tbaa !18
  %69 = load i32, ptr %7, align 4, !tbaa !8
  %70 = sext i32 %69 to i64
  %71 = getelementptr inbounds [5 x [4 x i64]], ptr @SFmask, i64 0, i64 %70
  %72 = getelementptr inbounds [4 x i64], ptr %71, i64 0, i64 1
  %73 = load i64, ptr %72, align 8, !tbaa !18
  %74 = and i64 %68, %73
  %75 = load i32, ptr %11, align 4, !tbaa !8
  %76 = zext i32 %75 to i64
  %77 = shl i64 %74, %76
  %78 = load ptr, ptr %6, align 8, !tbaa !3
  %79 = load i32, ptr %10, align 4, !tbaa !8
  %80 = sext i32 %79 to i64
  %81 = getelementptr inbounds i64, ptr %78, i64 %80
  %82 = load i64, ptr %81, align 8, !tbaa !18
  %83 = load i32, ptr %7, align 4, !tbaa !8
  %84 = sext i32 %83 to i64
  %85 = getelementptr inbounds [5 x [4 x i64]], ptr @SFmask, i64 0, i64 %84
  %86 = getelementptr inbounds [4 x i64], ptr %85, i64 0, i64 2
  %87 = load i64, ptr %86, align 16, !tbaa !18
  %88 = and i64 %82, %87
  %89 = load i32, ptr %11, align 4, !tbaa !8
  %90 = mul nsw i32 2, %89
  %91 = zext i32 %90 to i64
  %92 = shl i64 %88, %91
  %93 = icmp ult i64 %77, %92
  br i1 %93, label %94, label %95

94:                                               ; preds = %55
  store i32 1, ptr %5, align 4
  store i32 1, ptr %13, align 4
  br label %101

95:                                               ; preds = %55
  store i32 2, ptr %5, align 4
  store i32 1, ptr %13, align 4
  br label %101

96:                                               ; preds = %54
  %97 = load i32, ptr %10, align 4, !tbaa !8
  %98 = add nsw i32 %97, -1
  store i32 %98, ptr %10, align 4, !tbaa !8
  br label %18, !llvm.loop !22

99:                                               ; preds = %18
  %100 = load ptr, ptr %9, align 8, !tbaa !12
  store i32 0, ptr %100, align 4, !tbaa !8
  store i32 1, ptr %5, align 4
  store i32 1, ptr %13, align 4
  br label %101

101:                                              ; preds = %99, %95, %94
  call void @llvm.lifetime.end.p0(i64 8, ptr %12) #7
  call void @llvm.lifetime.end.p0(i64 4, ptr %11) #7
  call void @llvm.lifetime.end.p0(i64 4, ptr %10) #7
  %102 = load i32, ptr %5, align 4
  ret i32 %102
}

; Function Attrs: nounwind uwtable
define void @minimalSwapAndFlipIVar_superFast_lessThen5_noEBFC(ptr noundef %0, i32 noundef %1, i32 noundef %2, ptr noundef %3, ptr noundef %4) #0 {
  %6 = alloca ptr, align 8
  %7 = alloca i32, align 4
  %8 = alloca i32, align 4
  %9 = alloca ptr, align 8
  %10 = alloca ptr, align 8
  %11 = alloca i32, align 4
  store ptr %0, ptr %6, align 8, !tbaa !3
  store i32 %1, ptr %7, align 4, !tbaa !8
  store i32 %2, ptr %8, align 4, !tbaa !8
  store ptr %3, ptr %9, align 8, !tbaa !10
  store ptr %4, ptr %10, align 8, !tbaa !12
  call void @llvm.lifetime.start.p0(i64 4, ptr %11) #7
  %12 = load ptr, ptr %6, align 8, !tbaa !3
  %13 = load i32, ptr %7, align 4, !tbaa !8
  %14 = load i32, ptr %8, align 4, !tbaa !8
  %15 = call i32 @minTemp1_fast(ptr noundef %12, i32 noundef %13, i32 noundef %14, ptr noundef %11)
  %16 = icmp eq i32 %15, 2
  br i1 %16, label %17, label %25

17:                                               ; preds = %5
  %18 = load ptr, ptr %6, align 8, !tbaa !3
  %19 = load i32, ptr %11, align 4, !tbaa !8
  %20 = sdiv i32 %19, 100
  %21 = load i32, ptr %7, align 4, !tbaa !8
  %22 = load i32, ptr %8, align 4, !tbaa !8
  %23 = load ptr, ptr %9, align 8, !tbaa !10
  %24 = load ptr, ptr %10, align 8, !tbaa !12
  call void @arrangeQuoters_superFast_lessThen5(ptr noundef %18, i32 noundef %20, i32 noundef 0, i32 noundef 2, i32 noundef 1, i32 noundef 3, i32 noundef %21, i32 noundef %22, ptr noundef %23, ptr noundef %24)
  br label %25

25:                                               ; preds = %17, %5
  call void @llvm.lifetime.end.p0(i64 4, ptr %11) #7
  ret void
}