; Function Attrs: nounwind uwtable
define void @minimalSwapAndFlipIVar_superFast_lessThen5_noEBFC(ptr noundef captures(none) %0, i32 noundef %1, i32 noundef %2, ptr noundef %3, ptr noundef captures(none) %4) local_unnamed_addr #0 {
  %6 = shl nuw i32 1, %1
  %7 = sext i32 %1 to i64
  %8 = getelementptr inbounds [5 x [4 x i64]], ptr @SFmask, i64 0, i64 %7
  %9 = getelementptr inbounds nuw i8, ptr %8, i64 8
  %10 = zext nneg i32 %6 to i64
  %11 = getelementptr inbounds nuw i8, ptr %8, i64 16
  %12 = shl i32 2, %1
  %13 = zext nneg i32 %12 to i64
  %14 = zext i32 %2 to i64
  br label %15

15:                                               ; preds = %18, %5
  %indvars.iv.i = phi i64 [ %19, %18 ], [ %14, %5 ]
  %16 = trunc nuw i64 %indvars.iv.i to i32
  %17 = icmp sgt i32 %16, 0
  br i1 %17, label %18, label %minTemp1_fast.exit.thread

18:                                               ; preds = %15
  %19 = add nsw i64 %indvars.iv.i, -1
  %20 = getelementptr inbounds nuw i64, ptr %0, i64 %19
  %21 = load i64, ptr %20, align 8, !tbaa !11
  %22 = load i64, ptr %9, align 8, !tbaa !11
  %23 = and i64 %22, %21
  %24 = shl i64 %23, %10
  %25 = load i64, ptr %11, align 16, !tbaa !11
  %26 = and i64 %25, %21
  %27 = shl i64 %26, %13
  %28 = icmp eq i64 %24, %27
  br i1 %28, label %15, label %29, !llvm.loop !15

29:                                               ; preds = %18
  %30 = trunc i64 %19 to i32
  %31 = xor i64 %27, %24
  %32 = mul nsw i32 %30, 100
  %33 = add nuw nsw i32 %32, 20
  %34 = icmp eq i32 %1, 4
  br i1 %34, label %firstShiftWithOneBit.exit.i, label %35

35:                                               ; preds = %29
  %36 = icmp ugt i64 %31, 4294967295
  %spec.select28.i.i = select i1 %36, i32 32, i32 0
  %37 = icmp eq i32 %1, 3
  br i1 %37, label %38, label %41

38:                                               ; preds = %35
  %39 = sub nuw nsw i32 64, %spec.select28.i.i
  %40 = lshr exact i32 %39, 5
  br label %firstShiftWithOneBit.exit.i

41:                                               ; preds = %35
  %42 = lshr i64 %31, 32
  %spec.select.i.i = select i1 %36, i64 %42, i64 %31
  %43 = icmp samesign ugt i64 %spec.select.i.i, 65535
  %44 = or disjoint i32 %spec.select28.i.i, 16
  %.1.i.i = select i1 %43, i32 %44, i32 %spec.select28.i.i
  %45 = icmp eq i32 %1, 2
  br i1 %45, label %46, label %47

46:                                               ; preds = %41
  %.lhs.trunc.i.i = sub nuw nsw i32 64, %.1.i.i
  %.zext.i.i = lshr exact i32 %.lhs.trunc.i.i, 4
  br label %firstShiftWithOneBit.exit.i

47:                                               ; preds = %41
  %48 = lshr i64 %spec.select.i.i, 16
  %.123.i.i = select i1 %43, i64 %48, i64 %spec.select.i.i
  %49 = icmp samesign ugt i64 %.123.i.i, 255
  %50 = or disjoint i32 %.1.i.i, 8
  %.2.i.i = select i1 %49, i32 %50, i32 %.1.i.i
  %51 = icmp eq i32 %1, 1
  br i1 %51, label %52, label %54

52:                                               ; preds = %47
  %.lhs.trunc30.i.i = sub nuw nsw i32 64, %.2.i.i
  %53 = lshr exact i32 %.lhs.trunc30.i.i, 3
  br label %firstShiftWithOneBit.exit.i

54:                                               ; preds = %47
  %55 = lshr i64 %.123.i.i, 8
  %.224.i.i = select i1 %49, i64 %55, i64 %.123.i.i
  %56 = icmp samesign ugt i64 %.224.i.i, 15
  %57 = or disjoint i32 %.2.i.i, 4
  %spec.select29.i.i = select i1 %56, i32 %57, i32 %.2.i.i
  %.lhs.trunc32.i.i = sub nuw nsw i32 64, %spec.select29.i.i
  %58 = lshr i32 %.lhs.trunc32.i.i, 2
  br label %firstShiftWithOneBit.exit.i

firstShiftWithOneBit.exit.i:                      ; preds = %54, %52, %46, %38, %29
  %.021.i.i = phi i32 [ %40, %38 ], [ %.zext.i.i, %46 ], [ %53, %52 ], [ %58, %54 ], [ 0, %29 ]
  %59 = icmp ult i64 %24, %27
  br i1 %59, label %minTemp1_fast.exit.thread, label %minTemp1_fast.exit

minTemp1_fast.exit:                               ; preds = %firstShiftWithOneBit.exit.i
  %60 = sub nuw i32 %33, %.021.i.i
  %61 = icmp sgt i32 %60, -100
  br i1 %61, label %.lr.ph.i, label %arrangeQuoters_superFast_lessThen5.exit

.lr.ph.i:                                         ; preds = %minTemp1_fast.exit
  %62 = sdiv i32 %60, 100
  %63 = load i64, ptr %8, align 16, !tbaa !11
  %64 = getelementptr inbounds [5 x [4 x i64]], ptr @SFmask, i64 0, i64 %7, i64 3
  %65 = load i64, ptr %64, align 8, !tbaa !11
  %66 = shl i32 3, %1
  %67 = zext nneg i32 %66 to i64
  %68 = zext nneg i32 %62 to i64
  %69 = lshr i64 -1, %67
  %70 = and i64 %65, %69
  %71 = or i64 %70, %63
  br label %72

72:                                               ; preds = %72, %.lr.ph.i
  %indvars.iv.i7 = phi i64 [ %68, %.lr.ph.i ], [ %indvars.iv.next.i, %72 ]
  %73 = getelementptr inbounds nuw i64, ptr %0, i64 %indvars.iv.i7
  %74 = load i64, ptr %73, align 8, !tbaa !11
  %75 = and i64 %74, %25
  %76 = shl i64 %75, %13
  %77 = lshr i64 %76, %10
  %78 = and i64 %74, %22
  %79 = shl i64 %78, %10
  %80 = lshr i64 %79, %13
  %81 = and i64 %71, %74
  %82 = or i64 %81, %77
  %83 = or i64 %82, %80
  store i64 %83, ptr %73, align 8, !tbaa !11
  %indvars.iv.next.i = add nsw i64 %indvars.iv.i7, -1
  %.not.i = icmp eq i64 %indvars.iv.i7, 0
  br i1 %.not.i, label %arrangeQuoters_superFast_lessThen5.exit, label %72, !llvm.loop !13

arrangeQuoters_superFast_lessThen5.exit:          ; preds = %72, %minTemp1_fast.exit
  %84 = load i32, ptr %4, align 4, !tbaa !6
  %85 = tail call i32 @adjustInfoAfterSwap(ptr noundef %3, i32 noundef %84, i32 noundef %1, i32 noundef 4) #9
  store i32 %85, ptr %4, align 4, !tbaa !6
  br label %minTemp1_fast.exit.thread

minTemp1_fast.exit.thread:                        ; preds = %15, %firstShiftWithOneBit.exit.i, %arrangeQuoters_superFast_lessThen5.exit
  ret void
}